target datalayout = "e-m:e-p270:32:32-p271:32:32-p272:64:64-i64:64-i128:128-f80:128-n8:16:32:64-S128"
target triple = "x86_64-pc-linux-gnu"

%struct._packet_info = type { ptr, ptr, i32, i32, %struct.nstime_t, %struct.nstime_t, %struct.nstime_t, i8, ptr, ptr, ptr, ptr, %struct._address, %struct._address, %struct._address, %struct._address, %struct._address, %struct._address, i32, ptr, i8, [3 x i8], %struct.anon, i32, i32, i32, i32, ptr, i8, ptr, ptr, i16, i16, i32, i32, i16, i32, i32, ptr, ptr, ptr, i8, i8, i16, i16, i16, i32, i16, i16, ptr, ptr, ptr, ptr, ptr, i32, i32 }
%struct.nstime_t = type { i64, i32 }
%struct._address = type { i32, i32, ptr, ptr }
%struct.anon = type { i8, [3 x i8] }

@.str.46 = private unnamed_addr constant [10 x i8] c"[Express]\00", align 1
@.str.47 = private unnamed_addr constant [9 x i8] c"[Verify]\00", align 1
@.str.48 = private unnamed_addr constant [10 x i8] c"[Respond]\00", align 1
@.str.49 = private unnamed_addr constant [6 x i8] c"%s %s\00", align 1

; Function Attrs: null_pointer_is_valid sspstrong uwtable
define internal void @col_fstr_process(ptr noundef %0, ptr noundef %1, i32 noundef %2) #0 {
  %4 = alloca ptr, align 8
  %5 = alloca ptr, align 8
  %6 = alloca i32, align 4
  %7 = alloca i32, align 4
  store ptr %0, ptr %4, align 8
  store ptr %1, ptr %5, align 8
  store i32 %2, ptr %6, align 4
  call void @llvm.lifetime.start.p0(i64 4, ptr %7) #8
  %8 = load ptr, ptr %4, align 8
  %9 = call i32 @get_preamble_length(ptr noundef %8)
  store i32 %9, ptr %7, align 4
  %10 = load ptr, ptr %4, align 8
  %11 = call i32 @get_packet_type(ptr noundef %10)
  switch i32 %11, label %78 [
    i32 0, label %12
    i32 1, label %16
    i32 2, label %20
    i32 3, label %24
    i32 4, label %62
  ]

12:                                               ; preds = %3
  %13 = load ptr, ptr %5, align 8
  %14 = getelementptr inbounds nuw %struct._packet_info, ptr %13, i32 0, i32 1
  %15 = load ptr, ptr %14, align 8
  call void @col_set_str(ptr noundef %15, i32 noundef 25, ptr noundef @.str.46)
  br label %79

16:                                               ; preds = %3
  %17 = load ptr, ptr %5, align 8
  %18 = getelementptr inbounds nuw %struct._packet_info, ptr %17, i32 0, i32 1
  %19 = load ptr, ptr %18, align 8
  call void @col_set_str(ptr noundef %19, i32 noundef 25, ptr noundef @.str.47)
  br label %79

20:                                               ; preds = %3
  %21 = load ptr, ptr %5, align 8
  %22 = getelementptr inbounds nuw %struct._packet_info, ptr %21, i32 0, i32 1
  %23 = load ptr, ptr %22, align 8
  call void @col_set_str(ptr noundef %23, i32 noundef 25, ptr noundef @.str.48)
  br label %79

24:                                               ; preds = %3
  %25 = load i32, ptr %6, align 4
  %26 = icmp eq i32 %25, 0
  br i1 %26, label %27, label %37

27:                                               ; preds = %24
  %28 = load ptr, ptr %5, align 8
  %29 = getelementptr inbounds nuw %struct._packet_info, ptr %28, i32 0, i32 1
  %30 = load ptr, ptr %29, align 8
  %31 = load ptr, ptr %4, align 8
  %32 = load i32, ptr %7, align 4
  %33 = sub i32 %32, 1
  %34 = call zeroext i8 @tvb_get_uint8(ptr noundef %31, i32 noundef %33)
  %35 = zext i8 %34 to i32
  %36 = call ptr @try_val_to_str(i32 noundef %35, ptr noundef @preemptive_delim_desc)
  call void @col_add_str(ptr noundef %30, i32 noundef 25, ptr noundef %36)
  br label %61

37:                                               ; preds = %24
  %38 = load i32, ptr %6, align 4
  %39 = icmp eq i32 %38, 1
  br i1 %39, label %40, label %50

40:                                               ; preds = %37
  %41 = load ptr, ptr %5, align 8
  %42 = getelementptr inbounds nuw %struct._packet_info, ptr %41, i32 0, i32 1
  %43 = load ptr, ptr %42, align 8
  %44 = load ptr, ptr %4, align 8
  %45 = load i32, ptr %7, align 4
  %46 = sub i32 %45, 1
  %47 = call zeroext i8 @tvb_get_uint8(ptr noundef %44, i32 noundef %46)
  %48 = zext i8 %47 to i32
  %49 = call ptr @try_val_to_str(i32 noundef %48, ptr noundef @initial_delim_desc)
  call void @col_add_str(ptr noundef %43, i32 noundef 25, ptr noundef %49)
  br label %60

50:                                               ; preds = %37
  %51 = load ptr, ptr %5, align 8
  %52 = getelementptr inbounds nuw %struct._packet_info, ptr %51, i32 0, i32 1
  %53 = load ptr, ptr %52, align 8
  %54 = load ptr, ptr %4, align 8
  %55 = load i32, ptr %7, align 4
  %56 = sub i32 %55, 1
  %57 = call zeroext i8 @tvb_get_uint8(ptr noundef %54, i32 noundef %56)
  %58 = zext i8 %57 to i32
  %59 = call ptr @try_val_to_str(i32 noundef %58, ptr noundef @corrupted_delim_desc)
  call void @col_add_str(ptr noundef %53, i32 noundef 25, ptr noundef %59)
  br label %60

60:                                               ; preds = %50, %40
  br label %61

61:                                               ; preds = %60, %27
  br label %79

62:                                               ; preds = %3
  %63 = load ptr, ptr %5, align 8
  %64 = getelementptr inbounds nuw %struct._packet_info, ptr %63, i32 0, i32 1
  %65 = load ptr, ptr %64, align 8
  %66 = load ptr, ptr %4, align 8
  %67 = load i32, ptr %7, align 4
  %68 = sub i32 %67, 2
  %69 = call zeroext i8 @tvb_get_uint8(ptr noundef %66, i32 noundef %68)
  %70 = zext i8 %69 to i32
  %71 = call ptr @try_val_to_str(i32 noundef %70, ptr noundef @continuation_delim_desc)
  %72 = load ptr, ptr %4, align 8
  %73 = load i32, ptr %7, align 4
  %74 = sub i32 %73, 1
  %75 = call zeroext i8 @tvb_get_uint8(ptr noundef %72, i32 noundef %74)
  %76 = zext i8 %75 to i32
  %77 = call ptr @try_val_to_str(i32 noundef %76, ptr noundef @frag_count_delim_desc)
  call void (ptr, i32, ptr, ...) @col_add_fstr(ptr noundef %65, i32 noundef 25, ptr noundef @.str.49, ptr noundef %71, ptr noundef %77)
  br label %79

78:                                               ; preds = %3
  br label %79

79:                                               ; preds = %78, %62, %61, %20, %16, %12
  call void @llvm.lifetime.end.p0(i64 4, ptr %7) #8
  ret void
}