; Function Attrs: null_pointer_is_valid sspstrong uwtable
define internal fastcc void @col_fstr_process(ptr noundef %0, ptr noundef readonly captures(none) %1, i32 noundef range(i32 0, 3) %2) unnamed_addr #0 {
  %4 = tail call fastcc i32 @get_preamble_length(ptr noundef %0)
  %5 = tail call fastcc i32 @get_packet_type(ptr noundef %0)
  switch i32 %5, label %38 [
    i32 0, label %6
    i32 1, label %9
    i32 2, label %12
    i32 3, label %15
    i32 4, label %27
  ]

6:                                                ; preds = %3
  %7 = getelementptr inbounds nuw i8, ptr %1, i64 8
  %8 = load ptr, ptr %7, align 8
  tail call void @col_set_str(ptr noundef %8, i32 noundef 25, ptr noundef nonnull @.str.46)
  br label %38

9:                                                ; preds = %3
  %10 = getelementptr inbounds nuw i8, ptr %1, i64 8
  %11 = load ptr, ptr %10, align 8
  tail call void @col_set_str(ptr noundef %11, i32 noundef 25, ptr noundef nonnull @.str.47)
  br label %38

12:                                               ; preds = %3
  %13 = getelementptr inbounds nuw i8, ptr %1, i64 8
  %14 = load ptr, ptr %13, align 8
  tail call void @col_set_str(ptr noundef %14, i32 noundef 25, ptr noundef nonnull @.str.48)
  br label %38

15:                                               ; preds = %3
  %16 = getelementptr inbounds nuw i8, ptr %1, i64 8
  %17 = load ptr, ptr %16, align 8
  %18 = add i32 %4, -1
  %19 = tail call zeroext i8 @tvb_get_uint8(ptr noundef %0, i32 noundef %18)
  %20 = zext i8 %19 to i32
  switch i32 %2, label %25 [
    i32 0, label %21
    i32 1, label %23
  ]

21:                                               ; preds = %15
  %22 = tail call ptr @try_val_to_str(i32 noundef %20, ptr noundef nonnull @preemptive_delim_desc)
  tail call void @col_add_str(ptr noundef %17, i32 noundef 25, ptr noundef %22)
  br label %38

23:                                               ; preds = %15
  %24 = tail call ptr @try_val_to_str(i32 noundef %20, ptr noundef nonnull @initial_delim_desc)
  tail call void @col_add_str(ptr noundef %17, i32 noundef 25, ptr noundef %24)
  br label %38

25:                                               ; preds = %15
  %26 = tail call ptr @try_val_to_str(i32 noundef %20, ptr noundef nonnull @corrupted_delim_desc)
  tail call void @col_add_str(ptr noundef %17, i32 noundef 25, ptr noundef %26)
  br label %38

27:                                               ; preds = %3
  %28 = getelementptr inbounds nuw i8, ptr %1, i64 8
  %29 = load ptr, ptr %28, align 8
  %30 = add i32 %4, -2
  %31 = tail call zeroext i8 @tvb_get_uint8(ptr noundef %0, i32 noundef %30)
  %32 = zext i8 %31 to i32
  %33 = tail call ptr @try_val_to_str(i32 noundef %32, ptr noundef nonnull @continuation_delim_desc)
  %34 = add i32 %4, -1
  %35 = tail call zeroext i8 @tvb_get_uint8(ptr noundef %0, i32 noundef %34)
  %36 = zext i8 %35 to i32
  %37 = tail call ptr @try_val_to_str(i32 noundef %36, ptr noundef nonnull @frag_count_delim_desc)
  tail call void (ptr, i32, ptr, ...) @col_add_fstr(ptr noundef %29, i32 noundef 25, ptr noundef nonnull @.str.49, ptr noundef %33, ptr noundef %37)
  br label %38

38:                                               ; preds = %3, %21, %25, %23, %27, %12, %9, %6
  ret void
}